; Function Attrs: mustprogress uwtable
define hidden void @_ZN3vas2ot25ZeroTermImagelessTrackletC2Ev(ptr noundef nonnull align 8 dereferenceable(264) initializes((0, 44), (48, 128)) %0) unnamed_addr #0 align 2 personality ptr @__gxx_personality_v0 {
  store ptr getelementptr inbounds nuw inrange(-16, 40) (i8, ptr @_ZTVN3vas2ot8TrackletE, i64 16), ptr %0, align 8, !tbaa !3
  %2 = getelementptr inbounds nuw i8, ptr %0, i64 8
  store i32 0, ptr %2, align 8, !tbaa !6
  %3 = getelementptr inbounds nuw i8, ptr %0, i64 12
  store i32 -1, ptr %3, align 4, !tbaa !28
  %4 = getelementptr inbounds nuw i8, ptr %0, i64 16
  store i32 -1, ptr %4, align 8, !tbaa !29
  %5 = getelementptr inbounds nuw i8, ptr %0, i64 20
  store i32 -1, ptr %5, align 4, !tbaa !30
  %6 = getelementptr inbounds nuw i8, ptr %0, i64 24
  %7 = getelementptr inbounds nuw i8, ptr %0, i64 48
  tail call void @llvm.memset.p0.i64(ptr noundef nonnull align 8 dereferenceable(80) %7, i8 0, i64 80, i1 false)
  tail call void @llvm.memset.p0.i64(ptr noundef nonnull align 8 dereferenceable(20) %6, i8 0, i64 20, i1 false)
  tail call void @_ZNSt11_Deque_baseIN2cv5Rect_IfEESaIS2_EE17_M_initialize_mapEm(ptr noundef nonnull align 8 dereferenceable(80) %7, i64 noundef 0)
  %8 = getelementptr inbounds nuw i8, ptr %0, i64 128
  tail call void @llvm.memset.p0.i64(ptr noundef nonnull align 8 dereferenceable(80) %8, i8 0, i64 80, i1 false)
  invoke void @_ZNSt11_Deque_baseIN2cv5Rect_IfEESaIS2_EE17_M_initialize_mapEm(ptr noundef nonnull align 8 dereferenceable(80) %8, i64 noundef 0)
          to label %_ZN3vas2ot8TrackletC2Ev.exit unwind label %9

9:                                                ; preds = %1
  %10 = landingpad { ptr, i32 }
          cleanup
  tail call void @_ZNSt5dequeIN2cv5Rect_IfEESaIS2_EED2Ev(ptr noundef nonnull align 8 dereferenceable(80) %7) #17
  resume { ptr, i32 } %10

_ZN3vas2ot8TrackletC2Ev.exit:                     ; preds = %1
  %11 = getelementptr inbounds nuw i8, ptr %0, i64 208
  tail call void @llvm.memset.p0.i64(ptr noundef nonnull align 8 dereferenceable(40) %11, i8 0, i64 40, i1 false)
  store ptr getelementptr inbounds nuw inrange(-16, 40) (i8, ptr @_ZTVN3vas2ot25ZeroTermImagelessTrackletE, i64 16), ptr %0, align 8, !tbaa !3
  %12 = getelementptr inbounds nuw i8, ptr %0, i64 248
  store i32 1, ptr %12, align 8, !tbaa !74
  %13 = getelementptr inbounds nuw i8, ptr %0, i64 256
  store ptr null, ptr %13, align 8, !tbaa !83
  ret void
}